target datalayout = "e-m:e-p270:32:32-p271:32:32-p272:64:64-i64:64-i128:128-f80:128-n8:16:32:64-S128"
target triple = "x86_64-pc-linux-gnu"

@.str.16 = private unnamed_addr constant [2 x i8] c"\0A\00", align 1
@.str.17 = private unnamed_addr constant [29 x i8] c"    fsm_extract [selection]\0A\00", align 1
@.str.18 = private unnamed_addr constant [73 x i8] c"This pass operates on all signals marked as FSM state signals using the\0A\00", align 1
@.str.19 = private unnamed_addr constant [79 x i8] c"'fsm_encoding' attribute. It consumes the logic that creates the state signal\0A\00", align 1
@.str.20 = private unnamed_addr constant [78 x i8] c"and uses the state signal to generate control signal and replaces it with an\0A\00", align 1
@.str.21 = private unnamed_addr constant [11 x i8] c"FSM cell.\0A\00", align 1
@.str.22 = private unnamed_addr constant [75 x i8] c"The generated FSM cell still generates the original state signal with its\0A\00", align 1
@.str.23 = private unnamed_addr constant [75 x i8] c"original encoding. The 'fsm_opt' pass can be used in combination with the\0A\00", align 1
@.str.24 = private unnamed_addr constant [44 x i8] c"'opt_clean' pass to eliminate this signal.\0A\00", align 1

; Function Attrs: mustprogress uwtable
define internal void @_ZN12_GLOBAL__N_114FsmExtractPass4helpEv(ptr noundef nonnull align 8 dereferenceable(104) %0) unnamed_addr #4 align 2 {
  %2 = alloca ptr, align 8
  store ptr %0, ptr %2, align 8, !tbaa !19
  call void (ptr, ...) @_ZN5Yosys3logEPKcz(ptr noundef @.str.16)
  call void (ptr, ...) @_ZN5Yosys3logEPKcz(ptr noundef @.str.17)
  call void (ptr, ...) @_ZN5Yosys3logEPKcz(ptr noundef @.str.16)
  call void (ptr, ...) @_ZN5Yosys3logEPKcz(ptr noundef @.str.18)
  call void (ptr, ...) @_ZN5Yosys3logEPKcz(ptr noundef @.str.19)
  call void (ptr, ...) @_ZN5Yosys3logEPKcz(ptr noundef @.str.20)
  call void (ptr, ...) @_ZN5Yosys3logEPKcz(ptr noundef @.str.21)
  call void (ptr, ...) @_ZN5Yosys3logEPKcz(ptr noundef @.str.16)
  call void (ptr, ...) @_ZN5Yosys3logEPKcz(ptr noundef @.str.22)
  call void (ptr, ...) @_ZN5Yosys3logEPKcz(ptr noundef @.str.23)
  call void (ptr, ...) @_ZN5Yosys3logEPKcz(ptr noundef @.str.24)
  call void (ptr, ...) @_ZN5Yosys3logEPKcz(ptr noundef @.str.16)
  ret void
}